; Function Attrs: mustprogress uwtable
define void @_ZN2cv3hal3logEPKfPfi(ptr noundef readonly captures(none) %0, ptr noundef writeonly captures(none) %1, i32 noundef %2) local_unnamed_addr #0 personality ptr @__gxx_personality_v0 {
  %4 = alloca %"class.cv::utils::trace::details::Region", align 8
  call void @llvm.lifetime.start.p0(i64 16, ptr nonnull %4) #12
  call void @_ZN2cv5utils5trace7details6RegionC1ERKNS3_21LocationStaticStorageE(ptr noundef nonnull align 8 dereferenceable(12) %4, ptr noundef nonnull align 8 dereferenceable(32) @_ZZN2cv3hal6log32fEPKfPfiE25__cv_trace_location_fn154)
  invoke void @_ZN2cv3hal12cpu_baseline6log32fEPKfPfi(ptr noundef readonly %0, ptr noundef %1, i32 noundef %2)
          to label %.critedge.i unwind label %11

.critedge.i:                                      ; preds = %3
  %5 = getelementptr inbounds nuw i8, ptr %4, i64 8
  %6 = load i32, ptr %5, align 8, !tbaa !9
  %.not.i.i = icmp eq i32 %6, 0
  br i1 %.not.i.i, label %_ZN2cv3hal6log32fEPKfPfi.exit, label %7

7:                                                ; preds = %.critedge.i
  invoke void @_ZN2cv5utils5trace7details6Region7destroyEv(ptr noundef nonnull align 8 dereferenceable(12) %4)
          to label %_ZN2cv3hal6log32fEPKfPfi.exit unwind label %8

8:                                                ; preds = %7
  %9 = landingpad { ptr, i32 }
          catch ptr null
  %10 = extractvalue { ptr, i32 } %9, 0
  call void @__clang_call_terminate(ptr %10) #13
  unreachable

11:                                               ; preds = %3
  %12 = landingpad { ptr, i32 }
          cleanup
  call void @_ZN2cv5utils5trace7details6RegionD2Ev(ptr noundef nonnull align 8 dereferenceable(12) %4) #12
  call void @llvm.lifetime.end.p0(i64 16, ptr nonnull %4) #12
  resume { ptr, i32 } %12

_ZN2cv3hal6log32fEPKfPfi.exit:                    ; preds = %.critedge.i, %7
  call void @llvm.lifetime.end.p0(i64 16, ptr nonnull %4) #12
  ret void
}